target datalayout = "e-m:e-p270:32:32-p271:32:32-p272:64:64-i64:64-i128:128-f80:128-n8:16:32:64-S128"
target triple = "x86_64-pc-linux-gnu"

%struct.ok_struct = type { i64, i64, i64, i64, i32, i32, ptr, i32, i32, [4292 x i8] }

; Function Attrs: nounwind uwtable
define internal i32 @block_out(ptr noundef %0) #0 {
  %2 = alloca i32, align 4
  %3 = alloca ptr, align 8
  %4 = alloca ptr, align 8
  %5 = alloca ptr, align 8
  %6 = alloca i64, align 8
  %7 = alloca ptr, align 8
  %8 = alloca i32, align 4
  %9 = alloca i32, align 4
  store ptr %0, ptr %3, align 8, !tbaa !3
  call void @llvm.lifetime.start.p0(i64 8, ptr %4) #5
  call void @llvm.lifetime.start.p0(i64 8, ptr %5) #5
  call void @llvm.lifetime.start.p0(i64 8, ptr %6) #5
  call void @llvm.lifetime.start.p0(i64 8, ptr %7) #5
  call void @llvm.lifetime.start.p0(i64 4, ptr %8) #5
  %10 = load ptr, ptr %3, align 8, !tbaa !3
  %11 = call ptr @BIO_get_data(ptr noundef %10)
  store ptr %11, ptr %4, align 8, !tbaa !12
  %12 = load ptr, ptr %4, align 8, !tbaa !12
  %13 = getelementptr inbounds nuw %struct.ok_struct, ptr %12, i32 0, i32 6
  %14 = load ptr, ptr %13, align 8, !tbaa !34
  store ptr %14, ptr %5, align 8, !tbaa !37
  %15 = load ptr, ptr %5, align 8, !tbaa !37
  %16 = call ptr @EVP_MD_CTX_get0_md(ptr noundef %15)
  store ptr %16, ptr %7, align 8, !tbaa !32
  %17 = load ptr, ptr %7, align 8, !tbaa !32
  %18 = call i32 @EVP_MD_get_size(ptr noundef %17)
  store i32 %18, ptr %8, align 4, !tbaa !10
  %19 = load i32, ptr %8, align 4, !tbaa !10
  %20 = icmp sle i32 %19, 0
  br i1 %20, label %21, label %22

21:                                               ; preds = %1
  br label %78

22:                                               ; preds = %1
  %23 = load ptr, ptr %4, align 8, !tbaa !12
  %24 = getelementptr inbounds nuw %struct.ok_struct, ptr %23, i32 0, i32 0
  %25 = load i64, ptr %24, align 8, !tbaa !18
  %26 = sub i64 %25, 4
  store i64 %26, ptr %6, align 8, !tbaa !28
  %27 = load i64, ptr %6, align 8, !tbaa !28
  %28 = lshr i64 %27, 24
  %29 = trunc i64 %28 to i8
  %30 = load ptr, ptr %4, align 8, !tbaa !12
  %31 = getelementptr inbounds nuw %struct.ok_struct, ptr %30, i32 0, i32 9
  %32 = getelementptr inbounds [4292 x i8], ptr %31, i64 0, i64 0
  store i8 %29, ptr %32, align 8, !tbaa !38
  %33 = load i64, ptr %6, align 8, !tbaa !28
  %34 = lshr i64 %33, 16
  %35 = trunc i64 %34 to i8
  %36 = load ptr, ptr %4, align 8, !tbaa !12
  %37 = getelementptr inbounds nuw %struct.ok_struct, ptr %36, i32 0, i32 9
  %38 = getelementptr inbounds [4292 x i8], ptr %37, i64 0, i64 1
  store i8 %35, ptr %38, align 1, !tbaa !38
  %39 = load i64, ptr %6, align 8, !tbaa !28
  %40 = lshr i64 %39, 8
  %41 = trunc i64 %40 to i8
  %42 = load ptr, ptr %4, align 8, !tbaa !12
  %43 = getelementptr inbounds nuw %struct.ok_struct, ptr %42, i32 0, i32 9
  %44 = getelementptr inbounds [4292 x i8], ptr %43, i64 0, i64 2
  store i8 %41, ptr %44, align 2, !tbaa !38
  %45 = load i64, ptr %6, align 8, !tbaa !28
  %46 = trunc i64 %45 to i8
  %47 = load ptr, ptr %4, align 8, !tbaa !12
  %48 = getelementptr inbounds nuw %struct.ok_struct, ptr %47, i32 0, i32 9
  %49 = getelementptr inbounds [4292 x i8], ptr %48, i64 0, i64 3
  store i8 %46, ptr %49, align 1, !tbaa !38
  %50 = load ptr, ptr %5, align 8, !tbaa !37
  %51 = load ptr, ptr %4, align 8, !tbaa !12
  %52 = getelementptr inbounds nuw %struct.ok_struct, ptr %51, i32 0, i32 9
  %53 = getelementptr inbounds [4292 x i8], ptr %52, i64 0, i64 4
  %54 = load i64, ptr %6, align 8, !tbaa !28
  %55 = call i32 @EVP_DigestUpdate(ptr noundef %50, ptr noundef %53, i64 noundef %54)
  %56 = icmp ne i32 %55, 0
  br i1 %56, label %58, label %57

57:                                               ; preds = %22
  br label %78

58:                                               ; preds = %22
  %59 = load ptr, ptr %5, align 8, !tbaa !37
  %60 = load ptr, ptr %4, align 8, !tbaa !12
  %61 = getelementptr inbounds nuw %struct.ok_struct, ptr %60, i32 0, i32 9
  %62 = load ptr, ptr %4, align 8, !tbaa !12
  %63 = getelementptr inbounds nuw %struct.ok_struct, ptr %62, i32 0, i32 0
  %64 = load i64, ptr %63, align 8, !tbaa !18
  %65 = getelementptr inbounds nuw [4292 x i8], ptr %61, i64 0, i64 %64
  %66 = call i32 @EVP_DigestFinal_ex(ptr noundef %59, ptr noundef %65, ptr noundef null)
  %67 = icmp ne i32 %66, 0
  br i1 %67, label %69, label %68

68:                                               ; preds = %58
  br label %78

69:                                               ; preds = %58
  %70 = load i32, ptr %8, align 4, !tbaa !10
  %71 = sext i32 %70 to i64
  %72 = load ptr, ptr %4, align 8, !tbaa !12
  %73 = getelementptr inbounds nuw %struct.ok_struct, ptr %72, i32 0, i32 0
  %74 = load i64, ptr %73, align 8, !tbaa !18
  %75 = add i64 %74, %71
  store i64 %75, ptr %73, align 8, !tbaa !18
  %76 = load ptr, ptr %4, align 8, !tbaa !12
  %77 = getelementptr inbounds nuw %struct.ok_struct, ptr %76, i32 0, i32 7
  store i32 1, ptr %77, align 8, !tbaa !20
  store i32 1, ptr %2, align 4
  store i32 1, ptr %9, align 4
  br label %80

78:                                               ; preds = %68, %57, %21
  %79 = load ptr, ptr %3, align 8, !tbaa !3
  call void @BIO_clear_flags(ptr noundef %79, i32 noundef 15)
  store i32 0, ptr %2, align 4
  store i32 1, ptr %9, align 4
  br label %80

80:                                               ; preds = %78, %69
  call void @llvm.lifetime.end.p0(i64 4, ptr %8) #5
  call void @llvm.lifetime.end.p0(i64 8, ptr %7) #5
  call void @llvm.lifetime.end.p0(i64 8, ptr %6) #5
  call void @llvm.lifetime.end.p0(i64 8, ptr %5) #5
  call void @llvm.lifetime.end.p0(i64 8, ptr %4) #5
  %81 = load i32, ptr %2, align 4
  ret i32 %81
}