; Function Attrs: nounwind uwtable
define internal fastcc range(i32 0, 2) i32 @block_out(ptr noundef %0) unnamed_addr #2 {
  %2 = tail call ptr @BIO_get_data(ptr noundef %0) #8
  %3 = getelementptr inbounds nuw i8, ptr %2, i64 40
  %4 = load ptr, ptr %3, align 8, !tbaa !11
  %5 = tail call ptr @EVP_MD_CTX_get0_md(ptr noundef %4) #8
  %6 = tail call i32 @EVP_MD_get_size(ptr noundef %5) #8
  %7 = icmp slt i32 %6, 1
  br i1 %7, label %33, label %8

8:                                                ; preds = %1
  %9 = load i64, ptr %2, align 8, !tbaa !12
  %10 = add i64 %9, -4
  %11 = lshr i64 %10, 24
  %12 = trunc i64 %11 to i8
  %13 = getelementptr inbounds nuw i8, ptr %2, i64 56
  store i8 %12, ptr %13, align 8, !tbaa !13
  %14 = lshr i64 %10, 16
  %15 = trunc i64 %14 to i8
  %16 = getelementptr inbounds nuw i8, ptr %2, i64 57
  store i8 %15, ptr %16, align 1, !tbaa !13
  %17 = lshr i64 %10, 8
  %18 = trunc i64 %17 to i8
  %19 = getelementptr inbounds nuw i8, ptr %2, i64 58
  store i8 %18, ptr %19, align 2, !tbaa !13
  %20 = trunc i64 %10 to i8
  %21 = getelementptr inbounds nuw i8, ptr %2, i64 59
  store i8 %20, ptr %21, align 1, !tbaa !13
  %22 = getelementptr inbounds nuw i8, ptr %2, i64 60
  %23 = tail call i32 @EVP_DigestUpdate(ptr noundef %4, ptr noundef nonnull %22, i64 noundef %10) #8
  %.not = icmp eq i32 %23, 0
  br i1 %.not, label %33, label %24

24:                                               ; preds = %8
  %25 = load i64, ptr %2, align 8, !tbaa !12
  %26 = getelementptr inbounds nuw [4292 x i8], ptr %13, i64 0, i64 %25
  %27 = tail call i32 @EVP_DigestFinal_ex(ptr noundef %4, ptr noundef nonnull %26, ptr noundef null) #8
  %.not25 = icmp eq i32 %27, 0
  br i1 %.not25, label %33, label %28

28:                                               ; preds = %24
  %29 = zext nneg i32 %6 to i64
  %30 = load i64, ptr %2, align 8, !tbaa !12
  %31 = add i64 %30, %29
  store i64 %31, ptr %2, align 8, !tbaa !12
  %32 = getelementptr inbounds nuw i8, ptr %2, i64 48
  store i32 1, ptr %32, align 8, !tbaa !16
  br label %34

33:                                               ; preds = %24, %8, %1
  tail call void @BIO_clear_flags(ptr noundef %0, i32 noundef 15) #8
  br label %34

34:                                               ; preds = %33, %28
  %.0 = phi i32 [ 0, %33 ], [ 1, %28 ]
  ret i32 %.0
}